target datalayout = "e-m:e-p270:32:32-p271:32:32-p272:64:64-i64:64-i128:128-f80:128-n8:16:32:64-S128"
target triple = "x86_64-pc-linux-gnu"

%struct.evictionPoolEntry = type { i64, ptr, ptr, i32, i32 }

@EvictionPoolLRU = internal global ptr null, align 8

; Function Attrs: nounwind uwtable
define dso_local void @evictionPoolAlloc() #0 {
  %1 = alloca ptr, align 8
  %2 = alloca i32, align 4
  call void @llvm.lifetime.start.p0(i64 8, ptr %1) #11
  call void @llvm.lifetime.start.p0(i64 4, ptr %2) #11
  %3 = call noalias ptr @zmalloc(i64 noundef 512) #12
  store ptr %3, ptr %1, align 8, !tbaa !43
  store i32 0, ptr %2, align 4, !tbaa !39
  br label %4

4:                                                ; preds = %29, %0
  %5 = load i32, ptr %2, align 4, !tbaa !39
  %6 = icmp slt i32 %5, 16
  br i1 %6, label %7, label %32

7:                                                ; preds = %4
  %8 = load ptr, ptr %1, align 8, !tbaa !43
  %9 = load i32, ptr %2, align 4, !tbaa !39
  %10 = sext i32 %9 to i64
  %11 = getelementptr inbounds %struct.evictionPoolEntry, ptr %8, i64 %10
  %12 = getelementptr inbounds nuw %struct.evictionPoolEntry, ptr %11, i32 0, i32 0
  store i64 0, ptr %12, align 8, !tbaa !45
  %13 = load ptr, ptr %1, align 8, !tbaa !43
  %14 = load i32, ptr %2, align 4, !tbaa !39
  %15 = sext i32 %14 to i64
  %16 = getelementptr inbounds %struct.evictionPoolEntry, ptr %13, i64 %15
  %17 = getelementptr inbounds nuw %struct.evictionPoolEntry, ptr %16, i32 0, i32 1
  store ptr null, ptr %17, align 8, !tbaa !47
  %18 = call ptr @sdsnewlen(ptr noundef null, i64 noundef 255)
  %19 = load ptr, ptr %1, align 8, !tbaa !43
  %20 = load i32, ptr %2, align 4, !tbaa !39
  %21 = sext i32 %20 to i64
  %22 = getelementptr inbounds %struct.evictionPoolEntry, ptr %19, i64 %21
  %23 = getelementptr inbounds nuw %struct.evictionPoolEntry, ptr %22, i32 0, i32 2
  store ptr %18, ptr %23, align 8, !tbaa !48
  %24 = load ptr, ptr %1, align 8, !tbaa !43
  %25 = load i32, ptr %2, align 4, !tbaa !39
  %26 = sext i32 %25 to i64
  %27 = getelementptr inbounds %struct.evictionPoolEntry, ptr %24, i64 %26
  %28 = getelementptr inbounds nuw %struct.evictionPoolEntry, ptr %27, i32 0, i32 3
  store i32 0, ptr %28, align 8, !tbaa !49
  br label %29

29:                                               ; preds = %7
  %30 = load i32, ptr %2, align 4, !tbaa !39
  %31 = add nsw i32 %30, 1
  store i32 %31, ptr %2, align 4, !tbaa !39
  br label %4, !llvm.loop !50

32:                                               ; preds = %4
  %33 = load ptr, ptr %1, align 8, !tbaa !43
  store ptr %33, ptr @EvictionPoolLRU, align 8, !tbaa !43
  call void @llvm.lifetime.end.p0(i64 4, ptr %2) #11
  call void @llvm.lifetime.end.p0(i64 8, ptr %1) #11
  ret void
}