; Function Attrs: nounwind uwtable
define dso_local void @evictionPoolAlloc() local_unnamed_addr #0 {
  %1 = tail call noalias dereferenceable_or_null(512) ptr @zmalloc(i64 noundef 512) #16
  br label %2

2:                                                ; preds = %0, %2
  %indvars.iv = phi i64 [ 0, %0 ], [ %indvars.iv.next, %2 ]
  %3 = getelementptr inbounds nuw %struct.evictionPoolEntry, ptr %1, i64 %indvars.iv
  tail call void @llvm.memset.p0.i64(ptr noundef nonnull align 8 dereferenceable(16) %3, i8 0, i64 16, i1 false)
  %4 = tail call ptr @sdsnewlen(ptr noundef null, i64 noundef 255) #15
  %5 = getelementptr inbounds nuw i8, ptr %3, i64 16
  store ptr %4, ptr %5, align 8, !tbaa !38
  %6 = getelementptr inbounds nuw i8, ptr %3, i64 24
  store i32 0, ptr %6, align 8, !tbaa !40
  %indvars.iv.next = add nuw nsw i64 %indvars.iv, 1
  %exitcond.not = icmp eq i64 %indvars.iv.next, 16
  br i1 %exitcond.not, label %7, label %2, !llvm.loop !41

7:                                                ; preds = %2
  store ptr %1, ptr @EvictionPoolLRU, align 8, !tbaa !43
  ret void
}